target datalayout = "e-m:e-p270:32:32-p271:32:32-p272:64:64-i64:64-i128:128-f80:128-n8:16:32:64-S128"
target triple = "x86_64-pc-linux-gnu"

%struct.signals = type { [8 x i8], i32 }

; Function Attrs: inlinehint nounwind sspstrong willreturn memory(none) uwtable
define internal zeroext i1 @RB_FIXNUM_P(i64 noundef %0) #6 {
  %2 = alloca i64, align 8
  store i64 %0, ptr %2, align 8, !tbaa !22
  %3 = load i64, ptr %2, align 8, !tbaa !22
  %4 = and i64 %3, 1
  %5 = icmp ne i64 %4, 0
  ret i1 %5
}

; Function Attrs: nounwind sspstrong uwtable
define internal ptr @signo2signm(i32 noundef %0) #1 {
  %2 = alloca ptr, align 8
  %3 = alloca i32, align 4
  %4 = alloca ptr, align 8
  %5 = alloca i32, align 4
  store i32 %0, ptr %3, align 4, !tbaa !7
  call void @llvm.lifetime.start.p0(i64 8, ptr %4) #22
  store ptr @siglist, ptr %4, align 8, !tbaa !11
  br label %6

6:                                                ; preds = %20, %1
  %7 = load ptr, ptr %4, align 8, !tbaa !11
  %8 = icmp ult ptr %7, getelementptr (%struct.signals, ptr @siglist, i64 34)
  br i1 %8, label %9, label %23

9:                                                ; preds = %6
  %10 = load ptr, ptr %4, align 8, !tbaa !11
  %11 = getelementptr inbounds nuw %struct.signals, ptr %10, i32 0, i32 1
  %12 = load i32, ptr %11, align 4, !tbaa !14
  %13 = load i32, ptr %3, align 4, !tbaa !7
  %14 = icmp eq i32 %12, %13
  br i1 %14, label %15, label %19

15:                                               ; preds = %9
  %16 = load ptr, ptr %4, align 8, !tbaa !11
  %17 = getelementptr inbounds nuw %struct.signals, ptr %16, i32 0, i32 0
  %18 = getelementptr inbounds [8 x i8], ptr %17, i64 0, i64 0
  store ptr %18, ptr %2, align 8
  store i32 1, ptr %5, align 4
  br label %24

19:                                               ; preds = %9
  br label %20

20:                                               ; preds = %19
  %21 = load ptr, ptr %4, align 8, !tbaa !11
  %22 = getelementptr %struct.signals, ptr %21, i32 1
  store ptr %22, ptr %4, align 8, !tbaa !11
  br label %6, !llvm.loop !16

23:                                               ; preds = %6
  store ptr null, ptr %2, align 8
  store i32 1, ptr %5, align 4
  br label %24

24:                                               ; preds = %23, %15
  call void @llvm.lifetime.end.p0(i64 8, ptr %4) #22
  %25 = load ptr, ptr %2, align 8
  ret ptr %25
}

; Function Attrs: inlinehint nounwind sspstrong uwtable
define internal i32 @rb_num2int_inline(i64 noundef %0) #5 {
  %2 = alloca i64, align 8
  %3 = alloca i64, align 8
  store i64 %0, ptr %2, align 8, !tbaa !22
  call void @llvm.lifetime.start.p0(i64 8, ptr %3) #22
  %4 = load i64, ptr %2, align 8, !tbaa !22
  %5 = call zeroext i1 @RB_FIXNUM_P(i64 noundef %4) #28
  br i1 %5, label %6, label %9

6:                                                ; preds = %1
  %7 = load i64, ptr %2, align 8, !tbaa !22
  %8 = call i64 @rb_fix2int(i64 noundef %7)
  store i64 %8, ptr %3, align 8, !tbaa !22
  br label %12

9:                                                ; preds = %1
  %10 = load i64, ptr %2, align 8, !tbaa !22
  %11 = call i64 @rb_num2int(i64 noundef %10)
  store i64 %11, ptr %3, align 8, !tbaa !22
  br label %12

12:                                               ; preds = %9, %6
  %13 = load i64, ptr %3, align 8, !tbaa !22
  %14 = trunc i64 %13 to i32
  call void @llvm.lifetime.end.p0(i64 8, ptr %3) #22
  ret i32 %14
}

; Function Attrs: nounwind sspstrong uwtable
define internal i64 @sig_signame(i64 noundef %0, i64 noundef %1) #1 {
  %3 = alloca i64, align 8
  %4 = alloca i64, align 8
  %5 = alloca i64, align 8
  %6 = alloca ptr, align 8
  %7 = alloca i32, align 4
  store i64 %0, ptr %4, align 8, !tbaa !22
  store i64 %1, ptr %5, align 8, !tbaa !22
  call void @llvm.lifetime.start.p0(i64 8, ptr %6) #22
  %8 = load i64, ptr %5, align 8, !tbaa !22
  %9 = call i32 @rb_num2int_inline(i64 noundef %8)
  %10 = call ptr @signo2signm(i32 noundef %9)
  store ptr %10, ptr %6, align 8, !tbaa !18
  %11 = load ptr, ptr %6, align 8, !tbaa !18
  %12 = icmp ne ptr %11, null
  br i1 %12, label %14, label %13

13:                                               ; preds = %2
  store i64 4, ptr %3, align 8
  store i32 1, ptr %7, align 4
  br label %17

14:                                               ; preds = %2
  %15 = load ptr, ptr %6, align 8, !tbaa !18
  %16 = call i64 @rb_str_new_cstr(ptr noundef %15)
  store i64 %16, ptr %3, align 8
  store i32 1, ptr %7, align 4
  br label %17

17:                                               ; preds = %14, %13
  call void @llvm.lifetime.end.p0(i64 8, ptr %6) #22
  %18 = load i64, ptr %3, align 8
  ret i64 %18
}