; Function Attrs: nounwind sspstrong uwtable
define internal i64 @sig_signame(i64 %0, i64 noundef %1) #1 {
  %3 = and i64 %1, 1
  %.not.i = icmp eq i64 %3, 0
  br i1 %.not.i, label %6, label %4

4:                                                ; preds = %2
  %5 = tail call i64 @rb_fix2int(i64 noundef %1) #17
  br label %rb_num2int_inline.exit

6:                                                ; preds = %2
  %7 = tail call i64 @rb_num2int(i64 noundef %1) #17
  br label %rb_num2int_inline.exit

rb_num2int_inline.exit:                           ; preds = %4, %6
  %.0.i = phi i64 [ %5, %4 ], [ %7, %6 ]
  %8 = trunc i64 %.0.i to i32
  br label %9

9:                                                ; preds = %13, %rb_num2int_inline.exit
  %.06.i = phi ptr [ @siglist, %rb_num2int_inline.exit ], [ %14, %13 ]
  %10 = getelementptr inbounds nuw i8, ptr %.06.i, i64 8
  %11 = load i32, ptr %10, align 4, !tbaa !7
  %12 = icmp eq i32 %11, %8
  br i1 %12, label %signo2signm.exit, label %13

13:                                               ; preds = %9
  %14 = getelementptr i8, ptr %.06.i, i64 12
  %15 = icmp ult ptr %14, getelementptr inbounds nuw (i8, ptr @siglist, i64 408)
  br i1 %15, label %9, label %signo2signm.exit.thread, !llvm.loop !12

signo2signm.exit:                                 ; preds = %9
  %16 = tail call i64 @rb_str_new_cstr(ptr noundef nonnull %.06.i) #17
  br label %signo2signm.exit.thread

signo2signm.exit.thread:                          ; preds = %13, %signo2signm.exit
  %.0 = phi i64 [ %16, %signo2signm.exit ], [ 4, %13 ]
  ret i64 %.0
}